(dp0
S'syllables'
p1
(dp2
S'jungseong'
p3
(S'a'
p4
S'ay'
p5
S'ya'
p6
S'yay'
p7
S'e'
p8
S'ey'
p9
S'ye'
p10
S'yey'
p11
S'o'
p12
S'wa'
p13
S'way'
p14
S'oy'
p15
S'yo'
p16
S'wu'
p17
S'we'
p18
S'wey'
p19
S'wi'
p20
S'yu'
p21
S'u'
p22
S'uy'
p23
S'i'
p24
tp25
sS'jongseong'
p26
(S''
p27
S'k'
p28
S'kk'
p29
S'ks'
p30
S'n'
p31
S'nc'
p32
S'nh'
p33
S't'
p34
S'l'
p35
S'lk'
p36
S'lm'
p37
S'lp'
p38
S'ls'
p39
S'lth'
p40
S'lph'
p41
S'lh'
p42
S'm'
p43
S'p'
p44
S'ps'
p45
S's'
p46
S'ss'
p47
S'ng'
p48
S'c'
p49
S'ch'
p50
S'kh'
p51
S'th'
p52
S'ph'
p53
S'h'
p54
tp55
sS'choseong'
p56
(g28
g29
g31
g34
S'tt'
p57
g35
g43
g44
S'pp'
p58
g46
g47
g27
g49
S'cc'
p59
g50
g51
g52
g53
g54
tp60
ssS'jamo'
p61
((I4352
S'1100'
p62
g56
g28
tp63
(I4353
S'1101'
p64
g56
g29
tp65
(I4354
S'1102'
p66
g56
g31
tp67
(I4355
S'1103'
p68
g56
g34
tp69
(I4356
S'1104'
p70
g56
g57
tp71
(I4357
S'1105'
p72
g56
g35
tp73
(I4358
S'1106'
p74
g56
g43
tp75
(I4359
S'1107'
p76
g56
g44
tp77
(I4360
S'1108'
p78
g56
g58
tp79
(I4361
S'1109'
p80
g56
g46
tp81
(I4362
S'110A'
p82
g56
g47
tp83
(I4363
S'110B'
p84
g56
g27
tp85
(I4364
S'110C'
p86
g56
g49
tp87
(I4365
S'110D'
p88
g56
g59
tp89
(I4366
S'110E'
p90
g56
g50
tp91
(I4367
S'110F'
p92
g56
g51
tp93
(I4368
S'1110'
p94
g56
g52
tp95
(I4369
S'1111'
p96
g56
g53
tp97
(I4370
S'1112'
p98
g56
g54
tp99
(I4371
S'1113'
p100
g56
S'nk'
p101
tp102
(I4372
S'1114'
p103
g56
S'nn'
p104
tp105
(I4373
S'1115'
p106
g56
S'nt'
p107
tp108
(I4374
S'1116'
p109
g56
S'np'
p110
tp111
(I4375
S'1117'
p112
g56
S'tk'
p113
tp114
(I4376
S'1118'
p115
g56
S'ln'
p116
tp117
(I4377
S'1119'
p118
g56
S'll'
p119
tp120
(I4378
S'111A'
p121
g56
g42
tp122
(I4379
S'111B'
p123
g56
NS'kapyeoun lieul'
p124
tp125
(I4380
S'111C'
p126
g56
S'mp'
p127
tp128
(I4381
S'111D'
p129
g56
Ntp130
(I4382
S'111E'
p131
g56
S'pk'
p132
tp133
(I4383
S'111F'
p134
g56
S'pn'
p135
tp136
(I4384
S'1120'
p137
g56
S'pt'
p138
tp139
(I4385
S'1121'
p140
g56
g45
tp141
(I4386
S'1122'
p142
g56
S'psk'
p143
tp144
(I4387
S'1123'
p145
g56
S'pst'
p146
tp147
(I4388
S'1124'
p148
g56
S'psp'
p149
tp150
(I4389
S'1125'
p151
g56
S'pss'
p152
tp153
(I4390
S'1126'
p154
g56
S'psc'
p155
tp156
(I4391
S'1127'
p157
g56
S'pc'
p158
tp159
(I4392
S'1128'
p160
g56
S'pch'
p161
tp162
(I4393
S'1129'
p163
g56
S'pth'
p164
tp165
(I4394
S'112A'
p166
g56
S'pph'
p167
tp168
(I4395
S'112B'
p169
g56
Ntp170
(I4396
S'112C'
p171
g56
Ntp172
(I4397
S'112D'
p173
g56
S'sk'
p174
tp175
(I4398
S'112E'
p176
g56
S'sn'
p177
tp178
(I4399
S'112F'
p179
g56
S'st'
p180
tp181
(I4400
S'1130'
p182
g56
S'sl'
p183
tp184
(I4401
S'1131'
p185
g56
S'sm'
p186
tp187
(I4402
S'1132'
p188
g56
S'sp'
p189
tp190
(I4403
S'1133'
p191
g56
S'spk'
p192
tp193
(I4404
S'1134'
p194
g56
S'sss'
p195
tp196
(I4405
S'1135'
p197
g56
Ntp198
(I4406
S'1136'
p199
g56
S'sc'
p200
tp201
(I4407
S'1137'
p202
g56
S'sch'
p203
tp204
(I4408
S'1138'
p205
g56
S'skh'
p206
tp207
(I4409
S'1139'
p208
g56
S'sth'
p209
tp210
(I4410
S'113A'
p211
g56
S'sph'
p212
tp213
(I4411
S'113B'
p214
g56
S'sh'
p215
tp216
(I4412
S'113C'
p217
g56
Ntp218
(I4413
S'113D'
p219
g56
Ntp220
(I4414
S'113E'
p221
g56
Ntp222
(I4415
S'113F'
p223
g56
Ntp224
(I4416
S'1140'
p225
g56
S'z'
p226
tp227
(I4417
S'1141'
p228
g56
S'ngk'
p229
tp230
(I4418
S'1142'
p231
g56
S'ngt'
p232
tp233
(I4419
S'1143'
p234
g56
S'ngm'
p235
tp236
(I4420
S'1144'
p237
g56
S'ngp'
p238
tp239
(I4421
S'1145'
p240
g56
S'ngs'
p241
tp242
(I4422
S'1146'
p243
g56
S'ngz'
p244
tp245
(I4423
S'1147'
p246
g56
S'ngng'
p247
tp248
(I4424
S'1148'
p249
g56
S'ngc'
p250
tp251
(I4425
S'1149'
p252
g56
S'ngch'
p253
tp254
(I4426
S'114A'
p255
g56
S'ngth'
p256
tp257
(I4427
S'114B'
p258
g56
S'ngph'
p259
tp260
(I4428
S'114C'
p261
g56
g48
tp262
(I4429
S'114D'
p263
g56
S'cng'
p264
tp265
(I4430
S'114E'
p266
g56
Ntp267
(I4431
S'114F'
p268
g56
Ntp269
(I4432
S'1150'
p270
g56
Ntp271
(I4433
S'1151'
p272
g56
Ntp273
(I4434
S'1152'
p274
g56
S'chkh'
p275
tp276
(I4435
S'1153'
p277
g56
S'chh'
p278
tp279
(I4436
S'1154'
p280
g56
Ntp281
(I4437
S'1155'
p282
g56
Ntp283
(I4438
S'1156'
p284
g56
S'php'
p285
tp286
(I4439
S'1157'
p287
g56
Ntp288
(I4440
S'1158'
p289
g56
S'hh'
p290
tp291
(I4441
S'1159'
p292
g56
Ntp293
(I4442
S'115A'
p294
g56
S'kt'
p295
tp296
(I4443
S'115B'
p297
g56
S'ns'
p298
tp299
(I4444
S'115C'
p300
g56
g32
tp301
(I4445
S'115D'
p302
g56
g33
tp303
(I4446
S'115E'
p304
g56
S'tl'
p305
tp306
(I4447
S'115F'
p307
g56
Ntp308
(I4448
S'1160'
p309
g3
Ntp310
(I4449
S'1161'
p311
g3
g4
tp312
(I4450
S'1162'
p313
g3
g5
tp314
(I4451
S'1163'
p315
g3
g6
tp316
(I4452
S'1164'
p317
g3
g7
tp318
(I4453
S'1165'
p319
g3
g8
tp320
(I4454
S'1166'
p321
g3
g9
tp322
(I4455
S'1167'
p323
g3
g10
tp324
(I4456
S'1168'
p325
g3
g11
tp326
(I4457
S'1169'
p327
g3
g12
tp328
(I4458
S'116A'
p329
g3
g13
tp330
(I4459
S'116B'
p331
g3
g14
tp332
(I4460
S'116C'
p333
g3
g15
tp334
(I4461
S'116D'
p335
g3
g16
tp336
(I4462
S'116E'
p337
g3
g17
tp338
(I4463
S'116F'
p339
g3
g18
tp340
(I4464
S'1170'
p341
g3
g19
tp342
(I4465
S'1171'
p343
g3
g20
tp344
(I4466
S'1172'
p345
g3
g21
tp346
(I4467
S'1173'
p347
g3
g22
tp348
(I4468
S'1174'
p349
g3
g23
tp350
(I4469
S'1175'
p351
g3
g24
tp352
(I4470
S'1176'
p353
g3
Ntp354
(I4471
S'1177'
p355
g3
Ntp356
(I4472
S'1178'
p357
g3
Ntp358
(I4473
S'1179'
p359
g3
Ntp360
(I4474
S'117A'
p361
g3
Ntp362
(I4475
S'117B'
p363
g3
Ntp364
(I4476
S'117C'
p365
g3
Ntp366
(I4477
S'117D'
p367
g3
Ntp368
(I4478
S'117E'
p369
g3
Ntp370
(I4479
S'117F'
p371
g3
Ntp372
(I4480
S'1180'
p373
g3
Ntp374
(I4481
S'1181'
p375
g3
Ntp376
(I4482
S'1182'
p377
g3
Ntp378
(I4483
S'1183'
p379
g3
Ntp380
(I4484
S'1184'
p381
g3
Ntp382
(I4485
S'1185'
p383
g3
Ntp384
(I4486
S'1186'
p385
g3
Ntp386
(I4487
S'1187'
p387
g3
Ntp388
(I4488
S'1188'
p389
g3
Ntp390
(I4489
S'1189'
p391
g3
Ntp392
(I4490
S'118A'
p393
g3
Ntp394
(I4491
S'118B'
p395
g3
Ntp396
(I4492
S'118C'
p397
g3
Ntp398
(I4493
S'118D'
p399
g3
Ntp400
(I4494
S'118E'
p401
g3
Ntp402
(I4495
S'118F'
p403
g3
Ntp404
(I4496
S'1190'
p405
g3
Ntp406
(I4497
S'1191'
p407
g3
Ntp408
(I4498
S'1192'
p409
g3
Ntp410
(I4499
S'1193'
p411
g3
Ntp412
(I4500
S'1194'
p413
g3
Ntp414
(I4501
S'1195'
p415
g3
Ntp416
(I4502
S'1196'
p417
g3
Ntp418
(I4503
S'1197'
p419
g3
Ntp420
(I4504
S'1198'
p421
g3
Ntp422
(I4505
S'1199'
p423
g3
Ntp424
(I4506
S'119A'
p425
g3
Ntp426
(I4507
S'119B'
p427
g3
Ntp428
(I4508
S'119C'
p429
g3
Ntp430
(I4509
S'119D'
p431
g3
Ntp432
(I4510
S'119E'
p433
g3
S'@'
p434
tp435
(I4511
S'119F'
p436
g3
Ntp437
(I4512
S'11A0'
p438
g3
Ntp439
(I4513
S'11A1'
p440
g3
Ntp441
(I4514
S'11A2'
p442
g3
Ntp443
(I4515
S'11A3'
p444
g3
Ntp445
(I4516
S'11A4'
p446
g3
Ntp447
(I4517
S'11A5'
p448
g3
Ntp449
(I4518
S'11A6'
p450
g3
Ntp451
(I4519
S'11A7'
p452
g3
Ntp453
(I4520
S'11A8'
p454
g26
g28
tp455
(I4521
S'11A9'
p456
g26
g29
tp457
(I4522
S'11AA'
p458
g26
g30
tp459
(I4523
S'11AB'
p460
g26
g31
tp461
(I4524
S'11AC'
p462
g26
g32
tp463
(I4525
S'11AD'
p464
g26
g33
tp465
(I4526
S'11AE'
p466
g26
g34
tp467
(I4527
S'11AF'
p468
g26
g35
tp469
(I4528
S'11B0'
p470
g26
g36
tp471
(I4529
S'11B1'
p472
g26
g37
tp473
(I4530
S'11B2'
p474
g26
g38
tp475
(I4531
S'11B3'
p476
g26
g39
tp477
(I4532
S'11B4'
p478
g26
g40
tp479
(I4533
S'11B5'
p480
g26
g41
tp481
(I4534
S'11B6'
p482
g26
g42
tp483
(I4535
S'11B7'
p484
g26
g43
tp485
(I4536
S'11B8'
p486
g26
g44
tp487
(I4537
S'11B9'
p488
g26
g45
tp489
(I4538
S'11BA'
p490
g26
g46
tp491
(I4539
S'11BB'
p492
g26
g47
tp493
(I4540
S'11BC'
p494
g26
g48
tp495
(I4541
S'11BD'
p496
g26
g49
tp497
(I4542
S'11BE'
p498
g26
g50
tp499
(I4543
S'11BF'
p500
g26
g51
tp501
(I4544
S'11C0'
p502
g26
g52
tp503
(I4545
S'11C1'
p504
g26
g53
tp505
(I4546
S'11C2'
p506
g26
g54
tp507
(I4547
S'11C3'
p508
g26
S'kl'
p509
tp510
(I4548
S'11C4'
p511
g26
S'ksk'
p512
tp513
(I4549
S'11C5'
p514
g26
g101
tp515
(I4550
S'11C6'
p516
g26
g107
tp517
(I4551
S'11C7'
p518
g26
g298
tp519
(I4552
S'11C8'
p520
g26
S'nz'
p521
tp522
(I4553
S'11C9'
p523
g26
S'nth'
p524
tp525
(I4554
S'11CA'
p526
g26
g113
tp527
(I4555
S'11CB'
p528
g26
g305
tp529
(I4556
S'11CC'
p530
g26
S'lks'
p531
tp532
(I4557
S'11CD'
p533
g26
g116
tp534
(I4558
S'11CE'
p535
g26
S'lt'
p536
tp537
(I4559
S'11CF'
p538
g26
NS'lt-h'
p539
tp540
(I4560
S'11D0'
p541
g26
g119
tp542
(I4561
S'11D1'
p543
g26
S'lmk'
p544
tp545
(I4562
S'11D2'
p546
g26
S'lms'
p547
tp548
(I4563
S'11D3'
p549
g26
S'lps'
p550
tp551
(I4564
S'11D4'
p552
g26
NS'lp-h'
p553
tp554
(I4565
S'11D5'
p555
g26
Ntp556
(I4566
S'11D6'
p557
g26
S'lss'
p558
tp559
(I4567
S'11D7'
p560
g26
S'lz'
p561
tp562
(I4568
S'11D8'
p563
g26
S'lkh'
p564
tp565
(I4569
S'11D9'
p566
g26
Ntp567
(I4570
S'11DA'
p568
g26
S'mk'
p569
tp570
(I4571
S'11DB'
p571
g26
S'ml'
p572
tp573
(I4572
S'11DC'
p574
g26
g127
tp575
(I4573
S'11DD'
p576
g26
S'ms'
p577
tp578
(I4574
S'11DE'
p579
g26
S'mss'
p580
tp581
(I4575
S'11DF'
p582
g26
S'mz'
p583
tp584
(I4576
S'11E0'
p585
g26
S'mch'
p586
tp587
(I4577
S'11E1'
p588
g26
S'mh'
p589
tp590
(I4578
S'11E2'
p591
g26
Ntp592
(I4579
S'11E3'
p593
g26
S'pl'
p594
tp595
(I4580
S'11E4'
p596
g26
g167
tp597
(I4581
S'11E5'
p598
g26
NS'p-h'
p599
tp600
(I4582
S'11E6'
p601
g26
Ntp602
(I4583
S'11E7'
p603
g26
g174
tp604
(I4584
S'11E8'
p605
g26
g180
tp606
(I4585
S'11E9'
p607
g26
g183
tp608
(I4586
S'11EA'
p609
g26
g189
tp610
(I4587
S'11EB'
p611
g26
g226
tp612
(I4588
S'11EC'
p613
g26
g229
tp614
(I4589
S'11ED'
p615
g26
S'ngkk'
p616
tp617
(I4590
S'11EE'
p618
g26
g247
tp619
(I4591
S'11EF'
p620
g26
S'ngkh'
p621
tp622
(I4592
S'11F0'
p623
g26
Ntp624
(I4593
S'11F1'
p625
g26
Ntp626
(I4594
S'11F2'
p627
g26
Ntp628
(I4595
S'11F3'
p629
g26
g285
tp630
(I4596
S'11F4'
p631
g26
Ntp632
(I4597
S'11F5'
p633
g26
S'hn'
p634
tp635
(I4598
S'11F6'
p636
g26
S'hl'
p637
tp638
(I4599
S'11F7'
p639
g26
S'hm'
p640
tp641
(I4600
S'11F8'
p642
g26
S'hp'
p643
tp644
(I4601
S'11F9'
p645
g26
Ntp646
(I4602
S'11FA'
p647
g26
S'kn'
p648
tp649
(I4603
S'11FB'
p650
g26
S'kp'
p651
tp652
(I4604
S'11FC'
p653
g26
S'kch'
p654
tp655
(I4605
S'11FD'
p656
g26
S'kkh'
p657
tp658
(I4606
S'11FE'
p659
g26
NS'k-h'
p660
tp661
(I4607
S'11FF'
p662
g26
g104
tp663
tp664
s.